; Function Attrs: nounwind uwtable
define ptr @l___private_Lean_Compiler_IR_FreeVars_0__Lean_IR_MaxIndex_collectArgs___boxed(ptr noundef %0, ptr noundef %1) local_unnamed_addr #0 {
  %3 = load ptr, ptr @l___private_Lean_Compiler_IR_FreeVars_0__Lean_IR_MaxIndex_collectArgs___closed__1, align 8, !tbaa !13
  %4 = getelementptr i8, ptr %0, i64 8
  %.val.i.i = load i64, ptr %4, align 8, !tbaa !17
  %.mask.i.i = and i64 %.val.i.i, 9223372036854775807
  %.not.i.i = icmp eq i64 %.mask.i.i, 0
  br i1 %.not.i.i, label %lean_dec.exit24.i.i, label %lean_dec.exit.i.i

lean_dec.exit24.i.i:                              ; preds = %2
  %5 = ptrtoint ptr %3 to i64
  %6 = and i64 %5, 1
  %.not36.i.i = icmp eq i64 %6, 0
  br i1 %.not36.i.i, label %7, label %l___private_Lean_Compiler_IR_FreeVars_0__Lean_IR_MaxIndex_collectArgs.exit

7:                                                ; preds = %lean_dec.exit24.i.i
  %8 = load i32, ptr %3, align 4, !tbaa !4
  %9 = icmp sgt i32 %8, 1
  br i1 %9, label %10, label %12, !prof !9

10:                                               ; preds = %7
  %11 = add nsw i32 %8, -1
  store i32 %11, ptr %3, align 4, !tbaa !4
  br label %l___private_Lean_Compiler_IR_FreeVars_0__Lean_IR_MaxIndex_collectArgs.exit

12:                                               ; preds = %7
  %.not.i25.i.i = icmp eq i32 %8, 0
  br i1 %.not.i25.i.i, label %l___private_Lean_Compiler_IR_FreeVars_0__Lean_IR_MaxIndex_collectArgs.exit, label %13

13:                                               ; preds = %12
  tail call void @lean_dec_ref_cold(ptr noundef nonnull %3) #3
  br label %l___private_Lean_Compiler_IR_FreeVars_0__Lean_IR_MaxIndex_collectArgs.exit

lean_dec.exit.i.i:                                ; preds = %2
  %14 = tail call ptr @l_Array_foldlMUnsafe_fold___at___private_Lean_Compiler_IR_FreeVars_0__Lean_IR_MaxIndex_collectArray___spec__1___rarg(ptr noundef %3, ptr noundef nonnull readonly %0, i64 noundef 0, i64 noundef %.mask.i.i, ptr noundef %1)
  br label %l___private_Lean_Compiler_IR_FreeVars_0__Lean_IR_MaxIndex_collectArgs.exit

l___private_Lean_Compiler_IR_FreeVars_0__Lean_IR_MaxIndex_collectArgs.exit: ; preds = %lean_dec.exit24.i.i, %10, %12, %13, %lean_dec.exit.i.i
  %.0.i.i = phi ptr [ %14, %lean_dec.exit.i.i ], [ %1, %13 ], [ %1, %12 ], [ %1, %10 ], [ %1, %lean_dec.exit24.i.i ]
  %15 = ptrtoint ptr %0 to i64
  %16 = and i64 %15, 1
  %.not = icmp eq i64 %16, 0
  br i1 %.not, label %17, label %lean_dec.exit

17:                                               ; preds = %l___private_Lean_Compiler_IR_FreeVars_0__Lean_IR_MaxIndex_collectArgs.exit
  %18 = load i32, ptr %0, align 4, !tbaa !4
  %19 = icmp sgt i32 %18, 1
  br i1 %19, label %20, label %22, !prof !9

20:                                               ; preds = %17
  %21 = add nsw i32 %18, -1
  store i32 %21, ptr %0, align 4, !tbaa !4
  br label %lean_dec.exit

22:                                               ; preds = %17
  %.not.i = icmp eq i32 %18, 0
  br i1 %.not.i, label %lean_dec.exit, label %23

23:                                               ; preds = %22
  tail call void @lean_dec_ref_cold(ptr noundef nonnull %0) #3
  br label %lean_dec.exit

lean_dec.exit:                                    ; preds = %23, %22, %20, %l___private_Lean_Compiler_IR_FreeVars_0__Lean_IR_MaxIndex_collectArgs.exit
  ret ptr %.0.i.i
}